target datalayout = "e-m:e-p270:32:32-p271:32:32-p272:64:64-i64:64-i128:128-f80:128-n8:16:32:64-S128"
target triple = "x86_64-pc-linux-gnu"

%struct.st_callout_name_key = type { ptr, i32, ptr, ptr }

; Function Attrs: nounwind uwtable
define internal i32 @callout_name_table_cmp(ptr noundef %0, ptr noundef %1) #0 {
  %3 = alloca i32, align 4
  %4 = alloca ptr, align 8
  %5 = alloca ptr, align 8
  %6 = alloca ptr, align 8
  %7 = alloca ptr, align 8
  %8 = alloca i32, align 4
  %9 = alloca i32, align 4
  store ptr %0, ptr %4, align 8, !tbaa !9
  store ptr %1, ptr %5, align 8, !tbaa !9
  call void @llvm.lifetime.start.p0(i64 8, ptr %6) #8
  call void @llvm.lifetime.start.p0(i64 8, ptr %7) #8
  call void @llvm.lifetime.start.p0(i64 4, ptr %8) #8
  %10 = load ptr, ptr %4, align 8, !tbaa !9
  %11 = getelementptr inbounds nuw %struct.st_callout_name_key, ptr %10, i32 0, i32 0
  %12 = load ptr, ptr %11, align 8, !tbaa !24
  %13 = load ptr, ptr %5, align 8, !tbaa !9
  %14 = getelementptr inbounds nuw %struct.st_callout_name_key, ptr %13, i32 0, i32 0
  %15 = load ptr, ptr %14, align 8, !tbaa !24
  %16 = icmp ne ptr %12, %15
  br i1 %16, label %17, label %18

17:                                               ; preds = %2
  store i32 1, ptr %3, align 4
  store i32 1, ptr %9, align 4
  br label %79

18:                                               ; preds = %2
  %19 = load ptr, ptr %4, align 8, !tbaa !9
  %20 = getelementptr inbounds nuw %struct.st_callout_name_key, ptr %19, i32 0, i32 1
  %21 = load i32, ptr %20, align 8, !tbaa !27
  %22 = load ptr, ptr %5, align 8, !tbaa !9
  %23 = getelementptr inbounds nuw %struct.st_callout_name_key, ptr %22, i32 0, i32 1
  %24 = load i32, ptr %23, align 8, !tbaa !27
  %25 = icmp ne i32 %21, %24
  br i1 %25, label %26, label %27

26:                                               ; preds = %18
  store i32 1, ptr %3, align 4
  store i32 1, ptr %9, align 4
  br label %79

27:                                               ; preds = %18
  %28 = load ptr, ptr %4, align 8, !tbaa !9
  %29 = getelementptr inbounds nuw %struct.st_callout_name_key, ptr %28, i32 0, i32 3
  %30 = load ptr, ptr %29, align 8, !tbaa !28
  %31 = load ptr, ptr %4, align 8, !tbaa !9
  %32 = getelementptr inbounds nuw %struct.st_callout_name_key, ptr %31, i32 0, i32 2
  %33 = load ptr, ptr %32, align 8, !tbaa !29
  %34 = ptrtoint ptr %30 to i64
  %35 = ptrtoint ptr %33 to i64
  %36 = sub i64 %34, %35
  %37 = load ptr, ptr %5, align 8, !tbaa !9
  %38 = getelementptr inbounds nuw %struct.st_callout_name_key, ptr %37, i32 0, i32 3
  %39 = load ptr, ptr %38, align 8, !tbaa !28
  %40 = load ptr, ptr %5, align 8, !tbaa !9
  %41 = getelementptr inbounds nuw %struct.st_callout_name_key, ptr %40, i32 0, i32 2
  %42 = load ptr, ptr %41, align 8, !tbaa !29
  %43 = ptrtoint ptr %39 to i64
  %44 = ptrtoint ptr %42 to i64
  %45 = sub i64 %43, %44
  %46 = icmp ne i64 %36, %45
  br i1 %46, label %47, label %48

47:                                               ; preds = %27
  store i32 1, ptr %3, align 4
  store i32 1, ptr %9, align 4
  br label %79

48:                                               ; preds = %27
  %49 = load ptr, ptr %4, align 8, !tbaa !9
  %50 = getelementptr inbounds nuw %struct.st_callout_name_key, ptr %49, i32 0, i32 2
  %51 = load ptr, ptr %50, align 8, !tbaa !29
  store ptr %51, ptr %6, align 8, !tbaa !4
  %52 = load ptr, ptr %5, align 8, !tbaa !9
  %53 = getelementptr inbounds nuw %struct.st_callout_name_key, ptr %52, i32 0, i32 2
  %54 = load ptr, ptr %53, align 8, !tbaa !29
  store ptr %54, ptr %7, align 8, !tbaa !4
  br label %55

55:                                               ; preds = %73, %48
  %56 = load ptr, ptr %6, align 8, !tbaa !4
  %57 = load ptr, ptr %4, align 8, !tbaa !9
  %58 = getelementptr inbounds nuw %struct.st_callout_name_key, ptr %57, i32 0, i32 3
  %59 = load ptr, ptr %58, align 8, !tbaa !28
  %60 = icmp ult ptr %56, %59
  br i1 %60, label %61, label %78

61:                                               ; preds = %55
  %62 = load ptr, ptr %6, align 8, !tbaa !4
  %63 = load i8, ptr %62, align 1, !tbaa !12
  %64 = zext i8 %63 to i32
  %65 = load ptr, ptr %7, align 8, !tbaa !4
  %66 = load i8, ptr %65, align 1, !tbaa !12
  %67 = zext i8 %66 to i32
  %68 = sub nsw i32 %64, %67
  store i32 %68, ptr %8, align 4, !tbaa !10
  %69 = load i32, ptr %8, align 4, !tbaa !10
  %70 = icmp ne i32 %69, 0
  br i1 %70, label %71, label %73

71:                                               ; preds = %61
  %72 = load i32, ptr %8, align 4, !tbaa !10
  store i32 %72, ptr %3, align 4
  store i32 1, ptr %9, align 4
  br label %79

73:                                               ; preds = %61
  %74 = load ptr, ptr %6, align 8, !tbaa !4
  %75 = getelementptr inbounds nuw i8, ptr %74, i32 1
  store ptr %75, ptr %6, align 8, !tbaa !4
  %76 = load ptr, ptr %7, align 8, !tbaa !4
  %77 = getelementptr inbounds nuw i8, ptr %76, i32 1
  store ptr %77, ptr %7, align 8, !tbaa !4
  br label %55, !llvm.loop !30

78:                                               ; preds = %55
  store i32 0, ptr %3, align 4
  store i32 1, ptr %9, align 4
  br label %79

79:                                               ; preds = %78, %71, %47, %26, %17
  call void @llvm.lifetime.end.p0(i64 4, ptr %8) #8
  call void @llvm.lifetime.end.p0(i64 8, ptr %7) #8
  call void @llvm.lifetime.end.p0(i64 8, ptr %6) #8
  %80 = load i32, ptr %3, align 4
  ret i32 %80
}