; Function Attrs: nofree norecurse nosync nounwind memory(read, inaccessiblemem: none) uwtable
define internal range(i32 -255, 256) i32 @callout_name_table_cmp(ptr noundef readonly captures(none) %0, ptr noundef readonly captures(none) %1) #8 {
  %3 = load ptr, ptr %0, align 8, !tbaa !19
  %4 = load ptr, ptr %1, align 8, !tbaa !19
  %.not = icmp eq ptr %3, %4
  br i1 %.not, label %5, label %.loopexit

5:                                                ; preds = %2
  %6 = getelementptr inbounds nuw i8, ptr %0, i64 8
  %7 = load i32, ptr %6, align 8, !tbaa !22
  %8 = getelementptr inbounds nuw i8, ptr %1, i64 8
  %9 = load i32, ptr %8, align 8, !tbaa !22
  %.not21 = icmp eq i32 %7, %9
  br i1 %.not21, label %10, label %.loopexit

10:                                               ; preds = %5
  %11 = getelementptr inbounds nuw i8, ptr %0, i64 24
  %12 = load ptr, ptr %11, align 8, !tbaa !23
  %13 = getelementptr inbounds nuw i8, ptr %0, i64 16
  %14 = load ptr, ptr %13, align 8, !tbaa !24
  %15 = ptrtoint ptr %12 to i64
  %16 = ptrtoint ptr %14 to i64
  %17 = sub i64 %15, %16
  %18 = getelementptr inbounds nuw i8, ptr %1, i64 24
  %19 = load ptr, ptr %18, align 8, !tbaa !23
  %20 = getelementptr inbounds nuw i8, ptr %1, i64 16
  %21 = load ptr, ptr %20, align 8, !tbaa !24
  %22 = ptrtoint ptr %19 to i64
  %23 = ptrtoint ptr %21 to i64
  %24 = sub i64 %22, %23
  %.not22 = icmp eq i64 %17, %24
  br i1 %.not22, label %.preheader, label %.loopexit

.preheader:                                       ; preds = %10
  %25 = icmp ult ptr %14, %12
  br i1 %25, label %.lr.ph, label %.loopexit

.lr.ph:                                           ; preds = %.preheader, %31
  %.01825 = phi ptr [ %33, %31 ], [ %21, %.preheader ]
  %.01924 = phi ptr [ %32, %31 ], [ %14, %.preheader ]
  %26 = load i8, ptr %.01924, align 1, !tbaa !10
  %27 = zext i8 %26 to i32
  %28 = load i8, ptr %.01825, align 1, !tbaa !10
  %29 = zext i8 %28 to i32
  %30 = sub nsw i32 %27, %29
  %.not23 = icmp eq i32 %30, 0
  br i1 %.not23, label %31, label %.loopexit

31:                                               ; preds = %.lr.ph
  %32 = getelementptr inbounds nuw i8, ptr %.01924, i64 1
  %33 = getelementptr inbounds nuw i8, ptr %.01825, i64 1
  %exitcond.not = icmp eq ptr %32, %12
  br i1 %exitcond.not, label %.loopexit, label %.lr.ph, !llvm.loop !25

.loopexit:                                        ; preds = %.lr.ph, %31, %.preheader, %10, %5, %2
  %.0 = phi i32 [ 1, %2 ], [ 1, %5 ], [ 1, %10 ], [ 0, %.preheader ], [ %30, %.lr.ph ], [ 0, %31 ]
  ret i32 %.0
}